ARM GAS  C:\Users\Dennis\AppData\Local\Temp\cci0bFa1.s 			page 1


   1              		.cpu cortex-m3
   2              		.arch armv7-m
   3              		.fpu softvfp
   4              		.eabi_attribute 20, 1
   5              		.eabi_attribute 21, 1
   6              		.eabi_attribute 23, 3
   7              		.eabi_attribute 24, 1
   8              		.eabi_attribute 25, 1
   9              		.eabi_attribute 26, 1
  10              		.eabi_attribute 30, 1
  11              		.eabi_attribute 34, 1
  12              		.eabi_attribute 18, 4
  13              		.file	"tim.c"
  14              		.text
  15              	.Ltext0:
  16              		.cfi_sections	.debug_frame
  17              		.section	.text.HAL_TIM_PWM_MspInit,"ax",%progbits
  18              		.align	1
  19              		.global	HAL_TIM_PWM_MspInit
  20              		.syntax unified
  21              		.thumb
  22              		.thumb_func
  24              	HAL_TIM_PWM_MspInit:
  25              	.LVL0:
  26              	.LFB66:
  27              		.file 1 "Core/Src/tim.c"
   1:Core/Src/tim.c **** /* USER CODE BEGIN Header */
   2:Core/Src/tim.c **** /**
   3:Core/Src/tim.c ****   ******************************************************************************
   4:Core/Src/tim.c ****   * @file    tim.c
   5:Core/Src/tim.c ****   * @brief   This file provides code for the configuration
   6:Core/Src/tim.c ****   *          of the TIM instances.
   7:Core/Src/tim.c ****   ******************************************************************************
   8:Core/Src/tim.c ****   * @attention
   9:Core/Src/tim.c ****   *
  10:Core/Src/tim.c ****   * Copyright (c) 2025 STMicroelectronics.
  11:Core/Src/tim.c ****   * All rights reserved.
  12:Core/Src/tim.c ****   *
  13:Core/Src/tim.c ****   * This software is licensed under terms that can be found in the LICENSE file
  14:Core/Src/tim.c ****   * in the root directory of this software component.
  15:Core/Src/tim.c ****   * If no LICENSE file comes with this software, it is provided AS-IS.
  16:Core/Src/tim.c ****   *
  17:Core/Src/tim.c ****   ******************************************************************************
  18:Core/Src/tim.c ****   */
  19:Core/Src/tim.c **** /* USER CODE END Header */
  20:Core/Src/tim.c **** /* Includes ------------------------------------------------------------------*/
  21:Core/Src/tim.c **** #include "tim.h"
  22:Core/Src/tim.c **** 
  23:Core/Src/tim.c **** /* USER CODE BEGIN 0 */
  24:Core/Src/tim.c **** 
  25:Core/Src/tim.c **** /* USER CODE END 0 */
  26:Core/Src/tim.c **** 
  27:Core/Src/tim.c **** TIM_HandleTypeDef htim1;
  28:Core/Src/tim.c **** 
  29:Core/Src/tim.c **** /* TIM1 init function */
  30:Core/Src/tim.c **** void MX_TIM1_Init(void)
  31:Core/Src/tim.c **** {
ARM GAS  C:\Users\Dennis\AppData\Local\Temp\cci0bFa1.s 			page 2


  32:Core/Src/tim.c **** 
  33:Core/Src/tim.c ****   /* USER CODE BEGIN TIM1_Init 0 */
  34:Core/Src/tim.c **** 
  35:Core/Src/tim.c ****   /* USER CODE END TIM1_Init 0 */
  36:Core/Src/tim.c **** 
  37:Core/Src/tim.c ****   TIM_MasterConfigTypeDef sMasterConfig = {0};
  38:Core/Src/tim.c ****   TIM_OC_InitTypeDef sConfigOC = {0};
  39:Core/Src/tim.c ****   TIM_BreakDeadTimeConfigTypeDef sBreakDeadTimeConfig = {0};
  40:Core/Src/tim.c **** 
  41:Core/Src/tim.c ****   /* USER CODE BEGIN TIM1_Init 1 */
  42:Core/Src/tim.c **** 
  43:Core/Src/tim.c ****   /* USER CODE END TIM1_Init 1 */
  44:Core/Src/tim.c ****   htim1.Instance = TIM1;
  45:Core/Src/tim.c ****   htim1.Init.Prescaler = 0;
  46:Core/Src/tim.c ****   htim1.Init.CounterMode = TIM_COUNTERMODE_UP;
  47:Core/Src/tim.c ****   htim1.Init.Period = 65535;
  48:Core/Src/tim.c ****   htim1.Init.ClockDivision = TIM_CLOCKDIVISION_DIV1;
  49:Core/Src/tim.c ****   htim1.Init.RepetitionCounter = 0;
  50:Core/Src/tim.c ****   htim1.Init.AutoReloadPreload = TIM_AUTORELOAD_PRELOAD_DISABLE;
  51:Core/Src/tim.c ****   if (HAL_TIM_PWM_Init(&htim1) != HAL_OK)
  52:Core/Src/tim.c ****   {
  53:Core/Src/tim.c ****     Error_Handler();
  54:Core/Src/tim.c ****   }
  55:Core/Src/tim.c ****   sMasterConfig.MasterOutputTrigger = TIM_TRGO_RESET;
  56:Core/Src/tim.c ****   sMasterConfig.MasterSlaveMode = TIM_MASTERSLAVEMODE_DISABLE;
  57:Core/Src/tim.c ****   if (HAL_TIMEx_MasterConfigSynchronization(&htim1, &sMasterConfig) != HAL_OK)
  58:Core/Src/tim.c ****   {
  59:Core/Src/tim.c ****     Error_Handler();
  60:Core/Src/tim.c ****   }
  61:Core/Src/tim.c ****   sConfigOC.OCMode = TIM_OCMODE_PWM1;
  62:Core/Src/tim.c ****   sConfigOC.Pulse = 0;
  63:Core/Src/tim.c ****   sConfigOC.OCPolarity = TIM_OCPOLARITY_HIGH;
  64:Core/Src/tim.c ****   sConfigOC.OCNPolarity = TIM_OCNPOLARITY_HIGH;
  65:Core/Src/tim.c ****   sConfigOC.OCFastMode = TIM_OCFAST_DISABLE;
  66:Core/Src/tim.c ****   sConfigOC.OCIdleState = TIM_OCIDLESTATE_RESET;
  67:Core/Src/tim.c ****   sConfigOC.OCNIdleState = TIM_OCNIDLESTATE_RESET;
  68:Core/Src/tim.c ****   if (HAL_TIM_PWM_ConfigChannel(&htim1, &sConfigOC, TIM_CHANNEL_1) != HAL_OK)
  69:Core/Src/tim.c ****   {
  70:Core/Src/tim.c ****     Error_Handler();
  71:Core/Src/tim.c ****   }
  72:Core/Src/tim.c ****   if (HAL_TIM_PWM_ConfigChannel(&htim1, &sConfigOC, TIM_CHANNEL_2) != HAL_OK)
  73:Core/Src/tim.c ****   {
  74:Core/Src/tim.c ****     Error_Handler();
  75:Core/Src/tim.c ****   }
  76:Core/Src/tim.c ****   if (HAL_TIM_PWM_ConfigChannel(&htim1, &sConfigOC, TIM_CHANNEL_3) != HAL_OK)
  77:Core/Src/tim.c ****   {
  78:Core/Src/tim.c ****     Error_Handler();
  79:Core/Src/tim.c ****   }
  80:Core/Src/tim.c ****   sBreakDeadTimeConfig.OffStateRunMode = TIM_OSSR_DISABLE;
  81:Core/Src/tim.c ****   sBreakDeadTimeConfig.OffStateIDLEMode = TIM_OSSI_DISABLE;
  82:Core/Src/tim.c ****   sBreakDeadTimeConfig.LockLevel = TIM_LOCKLEVEL_OFF;
  83:Core/Src/tim.c ****   sBreakDeadTimeConfig.DeadTime = 0;
  84:Core/Src/tim.c ****   sBreakDeadTimeConfig.BreakState = TIM_BREAK_DISABLE;
  85:Core/Src/tim.c ****   sBreakDeadTimeConfig.BreakPolarity = TIM_BREAKPOLARITY_HIGH;
  86:Core/Src/tim.c ****   sBreakDeadTimeConfig.AutomaticOutput = TIM_AUTOMATICOUTPUT_DISABLE;
  87:Core/Src/tim.c ****   if (HAL_TIMEx_ConfigBreakDeadTime(&htim1, &sBreakDeadTimeConfig) != HAL_OK)
  88:Core/Src/tim.c ****   {
ARM GAS  C:\Users\Dennis\AppData\Local\Temp\cci0bFa1.s 			page 3


  89:Core/Src/tim.c ****     Error_Handler();
  90:Core/Src/tim.c ****   }
  91:Core/Src/tim.c ****   /* USER CODE BEGIN TIM1_Init 2 */
  92:Core/Src/tim.c **** 
  93:Core/Src/tim.c ****   /* USER CODE END TIM1_Init 2 */
  94:Core/Src/tim.c ****   HAL_TIM_MspPostInit(&htim1);
  95:Core/Src/tim.c **** 
  96:Core/Src/tim.c **** }
  97:Core/Src/tim.c **** 
  98:Core/Src/tim.c **** void HAL_TIM_PWM_MspInit(TIM_HandleTypeDef* tim_pwmHandle)
  99:Core/Src/tim.c **** {
  28              		.loc 1 99 1 view -0
  29              		.cfi_startproc
  30              		@ args = 0, pretend = 0, frame = 8
  31              		@ frame_needed = 0, uses_anonymous_args = 0
  32              		@ link register save eliminated.
 100:Core/Src/tim.c **** 
 101:Core/Src/tim.c ****   if(tim_pwmHandle->Instance==TIM1)
  33              		.loc 1 101 3 view .LVU1
  34              		.loc 1 101 19 is_stmt 0 view .LVU2
  35 0000 0268     		ldr	r2, [r0]
  36              		.loc 1 101 5 view .LVU3
  37 0002 094B     		ldr	r3, .L8
  38 0004 9A42     		cmp	r2, r3
  39 0006 00D0     		beq	.L7
  40 0008 7047     		bx	lr
  41              	.L7:
  99:Core/Src/tim.c **** 
  42              		.loc 1 99 1 view .LVU4
  43 000a 82B0     		sub	sp, sp, #8
  44              	.LCFI0:
  45              		.cfi_def_cfa_offset 8
 102:Core/Src/tim.c ****   {
 103:Core/Src/tim.c ****   /* USER CODE BEGIN TIM1_MspInit 0 */
 104:Core/Src/tim.c **** 
 105:Core/Src/tim.c ****   /* USER CODE END TIM1_MspInit 0 */
 106:Core/Src/tim.c ****     /* TIM1 clock enable */
 107:Core/Src/tim.c ****     __HAL_RCC_TIM1_CLK_ENABLE();
  46              		.loc 1 107 5 is_stmt 1 view .LVU5
  47              	.LBB2:
  48              		.loc 1 107 5 view .LVU6
  49              		.loc 1 107 5 view .LVU7
  50 000c 03F56443 		add	r3, r3, #58368
  51 0010 9A69     		ldr	r2, [r3, #24]
  52 0012 42F40062 		orr	r2, r2, #2048
  53 0016 9A61     		str	r2, [r3, #24]
  54              		.loc 1 107 5 view .LVU8
  55 0018 9B69     		ldr	r3, [r3, #24]
  56 001a 03F40063 		and	r3, r3, #2048
  57 001e 0193     		str	r3, [sp, #4]
  58              		.loc 1 107 5 view .LVU9
  59 0020 019B     		ldr	r3, [sp, #4]
  60              	.LBE2:
  61              		.loc 1 107 5 view .LVU10
 108:Core/Src/tim.c ****   /* USER CODE BEGIN TIM1_MspInit 1 */
 109:Core/Src/tim.c **** 
 110:Core/Src/tim.c ****   /* USER CODE END TIM1_MspInit 1 */
ARM GAS  C:\Users\Dennis\AppData\Local\Temp\cci0bFa1.s 			page 4


 111:Core/Src/tim.c ****   }
 112:Core/Src/tim.c **** }
  62              		.loc 1 112 1 is_stmt 0 view .LVU11
  63 0022 02B0     		add	sp, sp, #8
  64              	.LCFI1:
  65              		.cfi_def_cfa_offset 0
  66              		@ sp needed
  67 0024 7047     		bx	lr
  68              	.L9:
  69 0026 00BF     		.align	2
  70              	.L8:
  71 0028 002C0140 		.word	1073818624
  72              		.cfi_endproc
  73              	.LFE66:
  75              		.section	.text.HAL_TIM_MspPostInit,"ax",%progbits
  76              		.align	1
  77              		.global	HAL_TIM_MspPostInit
  78              		.syntax unified
  79              		.thumb
  80              		.thumb_func
  82              	HAL_TIM_MspPostInit:
  83              	.LVL1:
  84              	.LFB67:
 113:Core/Src/tim.c **** void HAL_TIM_MspPostInit(TIM_HandleTypeDef* timHandle)
 114:Core/Src/tim.c **** {
  85              		.loc 1 114 1 is_stmt 1 view -0
  86              		.cfi_startproc
  87              		@ args = 0, pretend = 0, frame = 24
  88              		@ frame_needed = 0, uses_anonymous_args = 0
  89              		.loc 1 114 1 is_stmt 0 view .LVU13
  90 0000 00B5     		push	{lr}
  91              	.LCFI2:
  92              		.cfi_def_cfa_offset 4
  93              		.cfi_offset 14, -4
  94 0002 87B0     		sub	sp, sp, #28
  95              	.LCFI3:
  96              		.cfi_def_cfa_offset 32
 115:Core/Src/tim.c **** 
 116:Core/Src/tim.c ****   GPIO_InitTypeDef GPIO_InitStruct = {0};
  97              		.loc 1 116 3 is_stmt 1 view .LVU14
  98              		.loc 1 116 20 is_stmt 0 view .LVU15
  99 0004 0023     		movs	r3, #0
 100 0006 0293     		str	r3, [sp, #8]
 101 0008 0393     		str	r3, [sp, #12]
 102 000a 0493     		str	r3, [sp, #16]
 103 000c 0593     		str	r3, [sp, #20]
 117:Core/Src/tim.c ****   if(timHandle->Instance==TIM1)
 104              		.loc 1 117 3 is_stmt 1 view .LVU16
 105              		.loc 1 117 15 is_stmt 0 view .LVU17
 106 000e 0268     		ldr	r2, [r0]
 107              		.loc 1 117 5 view .LVU18
 108 0010 0D4B     		ldr	r3, .L14
 109 0012 9A42     		cmp	r2, r3
 110 0014 02D0     		beq	.L13
 111              	.LVL2:
 112              	.L10:
 118:Core/Src/tim.c ****   {
ARM GAS  C:\Users\Dennis\AppData\Local\Temp\cci0bFa1.s 			page 5


 119:Core/Src/tim.c ****   /* USER CODE BEGIN TIM1_MspPostInit 0 */
 120:Core/Src/tim.c **** 
 121:Core/Src/tim.c ****   /* USER CODE END TIM1_MspPostInit 0 */
 122:Core/Src/tim.c **** 
 123:Core/Src/tim.c ****     __HAL_RCC_GPIOA_CLK_ENABLE();
 124:Core/Src/tim.c ****     /**TIM1 GPIO Configuration
 125:Core/Src/tim.c ****     PA8     ------> TIM1_CH1
 126:Core/Src/tim.c ****     PA9     ------> TIM1_CH2
 127:Core/Src/tim.c ****     PA10     ------> TIM1_CH3
 128:Core/Src/tim.c ****     */
 129:Core/Src/tim.c ****     GPIO_InitStruct.Pin = cylinder_1_Pin|cylinder_2_Pin|steering_engine_Pin;
 130:Core/Src/tim.c ****     GPIO_InitStruct.Mode = GPIO_MODE_AF_PP;
 131:Core/Src/tim.c ****     GPIO_InitStruct.Speed = GPIO_SPEED_FREQ_LOW;
 132:Core/Src/tim.c ****     HAL_GPIO_Init(GPIOA, &GPIO_InitStruct);
 133:Core/Src/tim.c **** 
 134:Core/Src/tim.c ****   /* USER CODE BEGIN TIM1_MspPostInit 1 */
 135:Core/Src/tim.c **** 
 136:Core/Src/tim.c ****   /* USER CODE END TIM1_MspPostInit 1 */
 137:Core/Src/tim.c ****   }
 138:Core/Src/tim.c **** 
 139:Core/Src/tim.c **** }
 113              		.loc 1 139 1 view .LVU19
 114 0016 07B0     		add	sp, sp, #28
 115              	.LCFI4:
 116              		.cfi_remember_state
 117              		.cfi_def_cfa_offset 4
 118              		@ sp needed
 119 0018 5DF804FB 		ldr	pc, [sp], #4
 120              	.LVL3:
 121              	.L13:
 122              	.LCFI5:
 123              		.cfi_restore_state
 123:Core/Src/tim.c ****     /**TIM1 GPIO Configuration
 124              		.loc 1 123 5 is_stmt 1 view .LVU20
 125              	.LBB3:
 123:Core/Src/tim.c ****     /**TIM1 GPIO Configuration
 126              		.loc 1 123 5 view .LVU21
 123:Core/Src/tim.c ****     /**TIM1 GPIO Configuration
 127              		.loc 1 123 5 view .LVU22
 128 001c 03F56443 		add	r3, r3, #58368
 129 0020 9A69     		ldr	r2, [r3, #24]
 130 0022 42F00402 		orr	r2, r2, #4
 131 0026 9A61     		str	r2, [r3, #24]
 123:Core/Src/tim.c ****     /**TIM1 GPIO Configuration
 132              		.loc 1 123 5 view .LVU23
 133 0028 9B69     		ldr	r3, [r3, #24]
 134 002a 03F00403 		and	r3, r3, #4
 135 002e 0193     		str	r3, [sp, #4]
 123:Core/Src/tim.c ****     /**TIM1 GPIO Configuration
 136              		.loc 1 123 5 view .LVU24
 137 0030 019B     		ldr	r3, [sp, #4]
 138              	.LBE3:
 123:Core/Src/tim.c ****     /**TIM1 GPIO Configuration
 139              		.loc 1 123 5 view .LVU25
 129:Core/Src/tim.c ****     GPIO_InitStruct.Mode = GPIO_MODE_AF_PP;
 140              		.loc 1 129 5 view .LVU26
 129:Core/Src/tim.c ****     GPIO_InitStruct.Mode = GPIO_MODE_AF_PP;
ARM GAS  C:\Users\Dennis\AppData\Local\Temp\cci0bFa1.s 			page 6


 141              		.loc 1 129 25 is_stmt 0 view .LVU27
 142 0032 4FF4E063 		mov	r3, #1792
 143 0036 0293     		str	r3, [sp, #8]
 130:Core/Src/tim.c ****     GPIO_InitStruct.Speed = GPIO_SPEED_FREQ_LOW;
 144              		.loc 1 130 5 is_stmt 1 view .LVU28
 130:Core/Src/tim.c ****     GPIO_InitStruct.Speed = GPIO_SPEED_FREQ_LOW;
 145              		.loc 1 130 26 is_stmt 0 view .LVU29
 146 0038 0223     		movs	r3, #2
 147 003a 0393     		str	r3, [sp, #12]
 131:Core/Src/tim.c ****     HAL_GPIO_Init(GPIOA, &GPIO_InitStruct);
 148              		.loc 1 131 5 is_stmt 1 view .LVU30
 131:Core/Src/tim.c ****     HAL_GPIO_Init(GPIOA, &GPIO_InitStruct);
 149              		.loc 1 131 27 is_stmt 0 view .LVU31
 150 003c 0593     		str	r3, [sp, #20]
 132:Core/Src/tim.c **** 
 151              		.loc 1 132 5 is_stmt 1 view .LVU32
 152 003e 02A9     		add	r1, sp, #8
 153 0040 0248     		ldr	r0, .L14+4
 154              	.LVL4:
 132:Core/Src/tim.c **** 
 155              		.loc 1 132 5 is_stmt 0 view .LVU33
 156 0042 FFF7FEFF 		bl	HAL_GPIO_Init
 157              	.LVL5:
 158              		.loc 1 139 1 view .LVU34
 159 0046 E6E7     		b	.L10
 160              	.L15:
 161              		.align	2
 162              	.L14:
 163 0048 002C0140 		.word	1073818624
 164 004c 00080140 		.word	1073809408
 165              		.cfi_endproc
 166              	.LFE67:
 168              		.section	.text.MX_TIM1_Init,"ax",%progbits
 169              		.align	1
 170              		.global	MX_TIM1_Init
 171              		.syntax unified
 172              		.thumb
 173              		.thumb_func
 175              	MX_TIM1_Init:
 176              	.LFB65:
  31:Core/Src/tim.c **** 
 177              		.loc 1 31 1 is_stmt 1 view -0
 178              		.cfi_startproc
 179              		@ args = 0, pretend = 0, frame = 72
 180              		@ frame_needed = 0, uses_anonymous_args = 0
 181 0000 10B5     		push	{r4, lr}
 182              	.LCFI6:
 183              		.cfi_def_cfa_offset 8
 184              		.cfi_offset 4, -8
 185              		.cfi_offset 14, -4
 186 0002 92B0     		sub	sp, sp, #72
 187              	.LCFI7:
 188              		.cfi_def_cfa_offset 80
  37:Core/Src/tim.c ****   TIM_OC_InitTypeDef sConfigOC = {0};
 189              		.loc 1 37 3 view .LVU36
  37:Core/Src/tim.c ****   TIM_OC_InitTypeDef sConfigOC = {0};
 190              		.loc 1 37 27 is_stmt 0 view .LVU37
ARM GAS  C:\Users\Dennis\AppData\Local\Temp\cci0bFa1.s 			page 7


 191 0004 0024     		movs	r4, #0
 192 0006 1094     		str	r4, [sp, #64]
 193 0008 1194     		str	r4, [sp, #68]
  38:Core/Src/tim.c ****   TIM_BreakDeadTimeConfigTypeDef sBreakDeadTimeConfig = {0};
 194              		.loc 1 38 3 is_stmt 1 view .LVU38
  38:Core/Src/tim.c ****   TIM_BreakDeadTimeConfigTypeDef sBreakDeadTimeConfig = {0};
 195              		.loc 1 38 22 is_stmt 0 view .LVU39
 196 000a 0994     		str	r4, [sp, #36]
 197 000c 0A94     		str	r4, [sp, #40]
 198 000e 0B94     		str	r4, [sp, #44]
 199 0010 0C94     		str	r4, [sp, #48]
 200 0012 0D94     		str	r4, [sp, #52]
 201 0014 0E94     		str	r4, [sp, #56]
 202 0016 0F94     		str	r4, [sp, #60]
  39:Core/Src/tim.c **** 
 203              		.loc 1 39 3 is_stmt 1 view .LVU40
  39:Core/Src/tim.c **** 
 204              		.loc 1 39 34 is_stmt 0 view .LVU41
 205 0018 2022     		movs	r2, #32
 206 001a 2146     		mov	r1, r4
 207 001c 01A8     		add	r0, sp, #4
 208 001e FFF7FEFF 		bl	memset
 209              	.LVL6:
  44:Core/Src/tim.c ****   htim1.Init.Prescaler = 0;
 210              		.loc 1 44 3 is_stmt 1 view .LVU42
  44:Core/Src/tim.c ****   htim1.Init.Prescaler = 0;
 211              		.loc 1 44 18 is_stmt 0 view .LVU43
 212 0022 2C48     		ldr	r0, .L30
 213 0024 2C4B     		ldr	r3, .L30+4
 214 0026 0360     		str	r3, [r0]
  45:Core/Src/tim.c ****   htim1.Init.CounterMode = TIM_COUNTERMODE_UP;
 215              		.loc 1 45 3 is_stmt 1 view .LVU44
  45:Core/Src/tim.c ****   htim1.Init.CounterMode = TIM_COUNTERMODE_UP;
 216              		.loc 1 45 24 is_stmt 0 view .LVU45
 217 0028 4460     		str	r4, [r0, #4]
  46:Core/Src/tim.c ****   htim1.Init.Period = 65535;
 218              		.loc 1 46 3 is_stmt 1 view .LVU46
  46:Core/Src/tim.c ****   htim1.Init.Period = 65535;
 219              		.loc 1 46 26 is_stmt 0 view .LVU47
 220 002a 8460     		str	r4, [r0, #8]
  47:Core/Src/tim.c ****   htim1.Init.ClockDivision = TIM_CLOCKDIVISION_DIV1;
 221              		.loc 1 47 3 is_stmt 1 view .LVU48
  47:Core/Src/tim.c ****   htim1.Init.ClockDivision = TIM_CLOCKDIVISION_DIV1;
 222              		.loc 1 47 21 is_stmt 0 view .LVU49
 223 002c 4FF6FF73 		movw	r3, #65535
 224 0030 C360     		str	r3, [r0, #12]
  48:Core/Src/tim.c ****   htim1.Init.RepetitionCounter = 0;
 225              		.loc 1 48 3 is_stmt 1 view .LVU50
  48:Core/Src/tim.c ****   htim1.Init.RepetitionCounter = 0;
 226              		.loc 1 48 28 is_stmt 0 view .LVU51
 227 0032 0461     		str	r4, [r0, #16]
  49:Core/Src/tim.c ****   htim1.Init.AutoReloadPreload = TIM_AUTORELOAD_PRELOAD_DISABLE;
 228              		.loc 1 49 3 is_stmt 1 view .LVU52
  49:Core/Src/tim.c ****   htim1.Init.AutoReloadPreload = TIM_AUTORELOAD_PRELOAD_DISABLE;
 229              		.loc 1 49 32 is_stmt 0 view .LVU53
 230 0034 4461     		str	r4, [r0, #20]
  50:Core/Src/tim.c ****   if (HAL_TIM_PWM_Init(&htim1) != HAL_OK)
ARM GAS  C:\Users\Dennis\AppData\Local\Temp\cci0bFa1.s 			page 8


 231              		.loc 1 50 3 is_stmt 1 view .LVU54
  50:Core/Src/tim.c ****   if (HAL_TIM_PWM_Init(&htim1) != HAL_OK)
 232              		.loc 1 50 32 is_stmt 0 view .LVU55
 233 0036 8461     		str	r4, [r0, #24]
  51:Core/Src/tim.c ****   {
 234              		.loc 1 51 3 is_stmt 1 view .LVU56
  51:Core/Src/tim.c ****   {
 235              		.loc 1 51 7 is_stmt 0 view .LVU57
 236 0038 FFF7FEFF 		bl	HAL_TIM_PWM_Init
 237              	.LVL7:
  51:Core/Src/tim.c ****   {
 238              		.loc 1 51 6 view .LVU58
 239 003c 0028     		cmp	r0, #0
 240 003e 36D1     		bne	.L24
 241              	.L17:
  55:Core/Src/tim.c ****   sMasterConfig.MasterSlaveMode = TIM_MASTERSLAVEMODE_DISABLE;
 242              		.loc 1 55 3 is_stmt 1 view .LVU59
  55:Core/Src/tim.c ****   sMasterConfig.MasterSlaveMode = TIM_MASTERSLAVEMODE_DISABLE;
 243              		.loc 1 55 37 is_stmt 0 view .LVU60
 244 0040 0023     		movs	r3, #0
 245 0042 1093     		str	r3, [sp, #64]
  56:Core/Src/tim.c ****   if (HAL_TIMEx_MasterConfigSynchronization(&htim1, &sMasterConfig) != HAL_OK)
 246              		.loc 1 56 3 is_stmt 1 view .LVU61
  56:Core/Src/tim.c ****   if (HAL_TIMEx_MasterConfigSynchronization(&htim1, &sMasterConfig) != HAL_OK)
 247              		.loc 1 56 33 is_stmt 0 view .LVU62
 248 0044 1193     		str	r3, [sp, #68]
  57:Core/Src/tim.c ****   {
 249              		.loc 1 57 3 is_stmt 1 view .LVU63
  57:Core/Src/tim.c ****   {
 250              		.loc 1 57 7 is_stmt 0 view .LVU64
 251 0046 10A9     		add	r1, sp, #64
 252 0048 2248     		ldr	r0, .L30
 253 004a FFF7FEFF 		bl	HAL_TIMEx_MasterConfigSynchronization
 254              	.LVL8:
  57:Core/Src/tim.c ****   {
 255              		.loc 1 57 6 view .LVU65
 256 004e 0028     		cmp	r0, #0
 257 0050 30D1     		bne	.L25
 258              	.L18:
  61:Core/Src/tim.c ****   sConfigOC.Pulse = 0;
 259              		.loc 1 61 3 is_stmt 1 view .LVU66
  61:Core/Src/tim.c ****   sConfigOC.Pulse = 0;
 260              		.loc 1 61 20 is_stmt 0 view .LVU67
 261 0052 6023     		movs	r3, #96
 262 0054 0993     		str	r3, [sp, #36]
  62:Core/Src/tim.c ****   sConfigOC.OCPolarity = TIM_OCPOLARITY_HIGH;
 263              		.loc 1 62 3 is_stmt 1 view .LVU68
  62:Core/Src/tim.c ****   sConfigOC.OCPolarity = TIM_OCPOLARITY_HIGH;
 264              		.loc 1 62 19 is_stmt 0 view .LVU69
 265 0056 0022     		movs	r2, #0
 266 0058 0A92     		str	r2, [sp, #40]
  63:Core/Src/tim.c ****   sConfigOC.OCNPolarity = TIM_OCNPOLARITY_HIGH;
 267              		.loc 1 63 3 is_stmt 1 view .LVU70
  63:Core/Src/tim.c ****   sConfigOC.OCNPolarity = TIM_OCNPOLARITY_HIGH;
 268              		.loc 1 63 24 is_stmt 0 view .LVU71
 269 005a 0B92     		str	r2, [sp, #44]
  64:Core/Src/tim.c ****   sConfigOC.OCFastMode = TIM_OCFAST_DISABLE;
ARM GAS  C:\Users\Dennis\AppData\Local\Temp\cci0bFa1.s 			page 9


 270              		.loc 1 64 3 is_stmt 1 view .LVU72
  64:Core/Src/tim.c ****   sConfigOC.OCFastMode = TIM_OCFAST_DISABLE;
 271              		.loc 1 64 25 is_stmt 0 view .LVU73
 272 005c 0C92     		str	r2, [sp, #48]
  65:Core/Src/tim.c ****   sConfigOC.OCIdleState = TIM_OCIDLESTATE_RESET;
 273              		.loc 1 65 3 is_stmt 1 view .LVU74
  65:Core/Src/tim.c ****   sConfigOC.OCIdleState = TIM_OCIDLESTATE_RESET;
 274              		.loc 1 65 24 is_stmt 0 view .LVU75
 275 005e 0D92     		str	r2, [sp, #52]
  66:Core/Src/tim.c ****   sConfigOC.OCNIdleState = TIM_OCNIDLESTATE_RESET;
 276              		.loc 1 66 3 is_stmt 1 view .LVU76
  66:Core/Src/tim.c ****   sConfigOC.OCNIdleState = TIM_OCNIDLESTATE_RESET;
 277              		.loc 1 66 25 is_stmt 0 view .LVU77
 278 0060 0E92     		str	r2, [sp, #56]
  67:Core/Src/tim.c ****   if (HAL_TIM_PWM_ConfigChannel(&htim1, &sConfigOC, TIM_CHANNEL_1) != HAL_OK)
 279              		.loc 1 67 3 is_stmt 1 view .LVU78
  67:Core/Src/tim.c ****   if (HAL_TIM_PWM_ConfigChannel(&htim1, &sConfigOC, TIM_CHANNEL_1) != HAL_OK)
 280              		.loc 1 67 26 is_stmt 0 view .LVU79
 281 0062 0F92     		str	r2, [sp, #60]
  68:Core/Src/tim.c ****   {
 282              		.loc 1 68 3 is_stmt 1 view .LVU80
  68:Core/Src/tim.c ****   {
 283              		.loc 1 68 7 is_stmt 0 view .LVU81
 284 0064 09A9     		add	r1, sp, #36
 285 0066 1B48     		ldr	r0, .L30
 286 0068 FFF7FEFF 		bl	HAL_TIM_PWM_ConfigChannel
 287              	.LVL9:
  68:Core/Src/tim.c ****   {
 288              		.loc 1 68 6 view .LVU82
 289 006c 28BB     		cbnz	r0, .L26
 290              	.L19:
  72:Core/Src/tim.c ****   {
 291              		.loc 1 72 3 is_stmt 1 view .LVU83
  72:Core/Src/tim.c ****   {
 292              		.loc 1 72 7 is_stmt 0 view .LVU84
 293 006e 0422     		movs	r2, #4
 294 0070 09A9     		add	r1, sp, #36
 295 0072 1848     		ldr	r0, .L30
 296 0074 FFF7FEFF 		bl	HAL_TIM_PWM_ConfigChannel
 297              	.LVL10:
  72:Core/Src/tim.c ****   {
 298              		.loc 1 72 6 view .LVU85
 299 0078 10BB     		cbnz	r0, .L27
 300              	.L20:
  76:Core/Src/tim.c ****   {
 301              		.loc 1 76 3 is_stmt 1 view .LVU86
  76:Core/Src/tim.c ****   {
 302              		.loc 1 76 7 is_stmt 0 view .LVU87
 303 007a 0822     		movs	r2, #8
 304 007c 09A9     		add	r1, sp, #36
 305 007e 1548     		ldr	r0, .L30
 306 0080 FFF7FEFF 		bl	HAL_TIM_PWM_ConfigChannel
 307              	.LVL11:
  76:Core/Src/tim.c ****   {
 308              		.loc 1 76 6 view .LVU88
 309 0084 F8B9     		cbnz	r0, .L28
 310              	.L21:
ARM GAS  C:\Users\Dennis\AppData\Local\Temp\cci0bFa1.s 			page 10


  80:Core/Src/tim.c ****   sBreakDeadTimeConfig.OffStateIDLEMode = TIM_OSSI_DISABLE;
 311              		.loc 1 80 3 is_stmt 1 view .LVU89
  80:Core/Src/tim.c ****   sBreakDeadTimeConfig.OffStateIDLEMode = TIM_OSSI_DISABLE;
 312              		.loc 1 80 40 is_stmt 0 view .LVU90
 313 0086 0023     		movs	r3, #0
 314 0088 0193     		str	r3, [sp, #4]
  81:Core/Src/tim.c ****   sBreakDeadTimeConfig.LockLevel = TIM_LOCKLEVEL_OFF;
 315              		.loc 1 81 3 is_stmt 1 view .LVU91
  81:Core/Src/tim.c ****   sBreakDeadTimeConfig.LockLevel = TIM_LOCKLEVEL_OFF;
 316              		.loc 1 81 41 is_stmt 0 view .LVU92
 317 008a 0293     		str	r3, [sp, #8]
  82:Core/Src/tim.c ****   sBreakDeadTimeConfig.DeadTime = 0;
 318              		.loc 1 82 3 is_stmt 1 view .LVU93
  82:Core/Src/tim.c ****   sBreakDeadTimeConfig.DeadTime = 0;
 319              		.loc 1 82 34 is_stmt 0 view .LVU94
 320 008c 0393     		str	r3, [sp, #12]
  83:Core/Src/tim.c ****   sBreakDeadTimeConfig.BreakState = TIM_BREAK_DISABLE;
 321              		.loc 1 83 3 is_stmt 1 view .LVU95
  83:Core/Src/tim.c ****   sBreakDeadTimeConfig.BreakState = TIM_BREAK_DISABLE;
 322              		.loc 1 83 33 is_stmt 0 view .LVU96
 323 008e 0493     		str	r3, [sp, #16]
  84:Core/Src/tim.c ****   sBreakDeadTimeConfig.BreakPolarity = TIM_BREAKPOLARITY_HIGH;
 324              		.loc 1 84 3 is_stmt 1 view .LVU97
  84:Core/Src/tim.c ****   sBreakDeadTimeConfig.BreakPolarity = TIM_BREAKPOLARITY_HIGH;
 325              		.loc 1 84 35 is_stmt 0 view .LVU98
 326 0090 0593     		str	r3, [sp, #20]
  85:Core/Src/tim.c ****   sBreakDeadTimeConfig.AutomaticOutput = TIM_AUTOMATICOUTPUT_DISABLE;
 327              		.loc 1 85 3 is_stmt 1 view .LVU99
  85:Core/Src/tim.c ****   sBreakDeadTimeConfig.AutomaticOutput = TIM_AUTOMATICOUTPUT_DISABLE;
 328              		.loc 1 85 38 is_stmt 0 view .LVU100
 329 0092 4FF40052 		mov	r2, #8192
 330 0096 0692     		str	r2, [sp, #24]
  86:Core/Src/tim.c ****   if (HAL_TIMEx_ConfigBreakDeadTime(&htim1, &sBreakDeadTimeConfig) != HAL_OK)
 331              		.loc 1 86 3 is_stmt 1 view .LVU101
  86:Core/Src/tim.c ****   if (HAL_TIMEx_ConfigBreakDeadTime(&htim1, &sBreakDeadTimeConfig) != HAL_OK)
 332              		.loc 1 86 40 is_stmt 0 view .LVU102
 333 0098 0893     		str	r3, [sp, #32]
  87:Core/Src/tim.c ****   {
 334              		.loc 1 87 3 is_stmt 1 view .LVU103
  87:Core/Src/tim.c ****   {
 335              		.loc 1 87 7 is_stmt 0 view .LVU104
 336 009a 01A9     		add	r1, sp, #4
 337 009c 0D48     		ldr	r0, .L30
 338 009e FFF7FEFF 		bl	HAL_TIMEx_ConfigBreakDeadTime
 339              	.LVL12:
  87:Core/Src/tim.c ****   {
 340              		.loc 1 87 6 view .LVU105
 341 00a2 98B9     		cbnz	r0, .L29
 342              	.L22:
  94:Core/Src/tim.c **** 
 343              		.loc 1 94 3 is_stmt 1 view .LVU106
 344 00a4 0B48     		ldr	r0, .L30
 345 00a6 FFF7FEFF 		bl	HAL_TIM_MspPostInit
 346              	.LVL13:
  96:Core/Src/tim.c **** 
 347              		.loc 1 96 1 is_stmt 0 view .LVU107
 348 00aa 12B0     		add	sp, sp, #72
ARM GAS  C:\Users\Dennis\AppData\Local\Temp\cci0bFa1.s 			page 11


 349              	.LCFI8:
 350              		.cfi_remember_state
 351              		.cfi_def_cfa_offset 8
 352              		@ sp needed
 353 00ac 10BD     		pop	{r4, pc}
 354              	.L24:
 355              	.LCFI9:
 356              		.cfi_restore_state
  53:Core/Src/tim.c ****   }
 357              		.loc 1 53 5 is_stmt 1 view .LVU108
 358 00ae FFF7FEFF 		bl	Error_Handler
 359              	.LVL14:
 360 00b2 C5E7     		b	.L17
 361              	.L25:
  59:Core/Src/tim.c ****   }
 362              		.loc 1 59 5 view .LVU109
 363 00b4 FFF7FEFF 		bl	Error_Handler
 364              	.LVL15:
 365 00b8 CBE7     		b	.L18
 366              	.L26:
  70:Core/Src/tim.c ****   }
 367              		.loc 1 70 5 view .LVU110
 368 00ba FFF7FEFF 		bl	Error_Handler
 369              	.LVL16:
 370 00be D6E7     		b	.L19
 371              	.L27:
  74:Core/Src/tim.c ****   }
 372              		.loc 1 74 5 view .LVU111
 373 00c0 FFF7FEFF 		bl	Error_Handler
 374              	.LVL17:
 375 00c4 D9E7     		b	.L20
 376              	.L28:
  78:Core/Src/tim.c ****   }
 377              		.loc 1 78 5 view .LVU112
 378 00c6 FFF7FEFF 		bl	Error_Handler
 379              	.LVL18:
 380 00ca DCE7     		b	.L21
 381              	.L29:
  89:Core/Src/tim.c ****   }
 382              		.loc 1 89 5 view .LVU113
 383 00cc FFF7FEFF 		bl	Error_Handler
 384              	.LVL19:
 385 00d0 E8E7     		b	.L22
 386              	.L31:
 387 00d2 00BF     		.align	2
 388              	.L30:
 389 00d4 00000000 		.word	.LANCHOR0
 390 00d8 002C0140 		.word	1073818624
 391              		.cfi_endproc
 392              	.LFE65:
 394              		.section	.text.HAL_TIM_PWM_MspDeInit,"ax",%progbits
 395              		.align	1
 396              		.global	HAL_TIM_PWM_MspDeInit
 397              		.syntax unified
 398              		.thumb
 399              		.thumb_func
 401              	HAL_TIM_PWM_MspDeInit:
ARM GAS  C:\Users\Dennis\AppData\Local\Temp\cci0bFa1.s 			page 12


 402              	.LVL20:
 403              	.LFB68:
 140:Core/Src/tim.c **** 
 141:Core/Src/tim.c **** void HAL_TIM_PWM_MspDeInit(TIM_HandleTypeDef* tim_pwmHandle)
 142:Core/Src/tim.c **** {
 404              		.loc 1 142 1 view -0
 405              		.cfi_startproc
 406              		@ args = 0, pretend = 0, frame = 0
 407              		@ frame_needed = 0, uses_anonymous_args = 0
 408              		@ link register save eliminated.
 143:Core/Src/tim.c **** 
 144:Core/Src/tim.c ****   if(tim_pwmHandle->Instance==TIM1)
 409              		.loc 1 144 3 view .LVU115
 410              		.loc 1 144 19 is_stmt 0 view .LVU116
 411 0000 0268     		ldr	r2, [r0]
 412              		.loc 1 144 5 view .LVU117
 413 0002 054B     		ldr	r3, .L35
 414 0004 9A42     		cmp	r2, r3
 415 0006 00D0     		beq	.L34
 416              	.L32:
 145:Core/Src/tim.c ****   {
 146:Core/Src/tim.c ****   /* USER CODE BEGIN TIM1_MspDeInit 0 */
 147:Core/Src/tim.c **** 
 148:Core/Src/tim.c ****   /* USER CODE END TIM1_MspDeInit 0 */
 149:Core/Src/tim.c ****     /* Peripheral clock disable */
 150:Core/Src/tim.c ****     __HAL_RCC_TIM1_CLK_DISABLE();
 151:Core/Src/tim.c ****   /* USER CODE BEGIN TIM1_MspDeInit 1 */
 152:Core/Src/tim.c **** 
 153:Core/Src/tim.c ****   /* USER CODE END TIM1_MspDeInit 1 */
 154:Core/Src/tim.c ****   }
 155:Core/Src/tim.c **** }
 417              		.loc 1 155 1 view .LVU118
 418 0008 7047     		bx	lr
 419              	.L34:
 150:Core/Src/tim.c ****   /* USER CODE BEGIN TIM1_MspDeInit 1 */
 420              		.loc 1 150 5 is_stmt 1 view .LVU119
 421 000a 044A     		ldr	r2, .L35+4
 422 000c 9369     		ldr	r3, [r2, #24]
 423 000e 23F40063 		bic	r3, r3, #2048
 424 0012 9361     		str	r3, [r2, #24]
 425              		.loc 1 155 1 is_stmt 0 view .LVU120
 426 0014 F8E7     		b	.L32
 427              	.L36:
 428 0016 00BF     		.align	2
 429              	.L35:
 430 0018 002C0140 		.word	1073818624
 431 001c 00100240 		.word	1073876992
 432              		.cfi_endproc
 433              	.LFE68:
 435              		.global	htim1
 436              		.section	.bss.htim1,"aw",%nobits
 437              		.align	2
 438              		.set	.LANCHOR0,. + 0
 441              	htim1:
 442 0000 00000000 		.space	72
 442      00000000 
 442      00000000 
ARM GAS  C:\Users\Dennis\AppData\Local\Temp\cci0bFa1.s 			page 13


 442      00000000 
 442      00000000 
 443              		.text
 444              	.Letext0:
 445              		.file 2 "c:\\software_user\\armgcc\\arm-none-eabi\\include\\machine\\_default_types.h"
 446              		.file 3 "c:\\software_user\\armgcc\\arm-none-eabi\\include\\sys\\_stdint.h"
 447              		.file 4 "Drivers/CMSIS/Device/ST/STM32F1xx/Include/stm32f103xb.h"
 448              		.file 5 "Drivers/STM32F1xx_HAL_Driver/Inc/stm32f1xx_hal_def.h"
 449              		.file 6 "Drivers/STM32F1xx_HAL_Driver/Inc/stm32f1xx_hal_gpio.h"
 450              		.file 7 "Drivers/STM32F1xx_HAL_Driver/Inc/stm32f1xx_hal_dma.h"
 451              		.file 8 "Drivers/STM32F1xx_HAL_Driver/Inc/stm32f1xx_hal_tim.h"
 452              		.file 9 "Drivers/STM32F1xx_HAL_Driver/Inc/stm32f1xx_hal_tim_ex.h"
 453              		.file 10 "Core/Inc/main.h"
 454              		.file 11 "Core/Inc/tim.h"
 455              		.file 12 "<built-in>"
ARM GAS  C:\Users\Dennis\AppData\Local\Temp\cci0bFa1.s 			page 14

